target datalayout = "e-m:e-p270:32:32-p271:32:32-p272:64:64-i64:64-i128:128-f80:128-n8:16:32:64-S128"
target triple = "x86_64-pc-linux-gnu"

%struct.Agobj_s = type { %struct.Agtag_s, ptr }
%struct.Agtag_s = type { i32, i64 }
%struct.Agrec_s = type { ptr, ptr }
%struct.boxf = type { %struct.pointf_s, %struct.pointf_s }
%struct.pointf_s = type { double, double }
%struct.Agnodeinfo_t = type { %struct.Agrec_s, ptr, ptr, %struct.pointf_s, double, double, %struct.boxf, double, double, double, double, double, ptr, ptr, ptr, i8, i8, i8, i8, i32, i32, i32, ptr, double, i8, i8, ptr, ptr, i8, i64, i8, i8, i8, ptr, ptr, %struct.elist, %struct.elist, %struct.elist, %struct.elist, %struct.elist, ptr, i32, ptr, i32, i32, double, %struct.elist, %struct.elist, %struct.elist, %struct.elist, ptr, i32, i32, i32, [1 x double] }
%struct.elist = type { ptr, i64 }

@Heapsize = internal global i32 0, align 4
@Heap = internal global ptr null, align 8

; Function Attrs: nounwind uwtable
define internal void @heapdown(ptr noundef %0) #0 {
  %2 = alloca ptr, align 8
  %3 = alloca i32, align 4
  %4 = alloca i32, align 4
  %5 = alloca i32, align 4
  %6 = alloca i32, align 4
  %7 = alloca ptr, align 8
  store ptr %0, ptr %2, align 8, !tbaa !29
  call void @llvm.lifetime.start.p0(i64 4, ptr %3) #11
  call void @llvm.lifetime.start.p0(i64 4, ptr %4) #11
  call void @llvm.lifetime.start.p0(i64 4, ptr %5) #11
  call void @llvm.lifetime.start.p0(i64 4, ptr %6) #11
  call void @llvm.lifetime.start.p0(i64 8, ptr %7) #11
  %8 = load ptr, ptr %2, align 8, !tbaa !29
  %9 = getelementptr inbounds nuw %struct.Agobj_s, ptr %8, i32 0, i32 1
  %10 = load ptr, ptr %9, align 8, !tbaa !47
  %11 = getelementptr inbounds nuw %struct.Agnodeinfo_t, ptr %10, i32 0, i32 20
  %12 = load i32, ptr %11, align 8, !tbaa !68
  store i32 %12, ptr %3, align 4, !tbaa !3
  br label %13

13:                                               ; preds = %67, %1
  %14 = load i32, ptr %3, align 4, !tbaa !3
  %15 = mul nsw i32 2, %14
  %16 = add nsw i32 %15, 1
  store i32 %16, ptr %4, align 4, !tbaa !3
  %17 = load i32, ptr @Heapsize, align 4, !tbaa !3
  %18 = icmp slt i32 %16, %17
  br i1 %18, label %19, label %89

19:                                               ; preds = %13
  %20 = load i32, ptr %4, align 4, !tbaa !3
  %21 = add nsw i32 %20, 1
  store i32 %21, ptr %5, align 4, !tbaa !3
  %22 = load i32, ptr %5, align 4, !tbaa !3
  %23 = load i32, ptr @Heapsize, align 4, !tbaa !3
  %24 = icmp slt i32 %22, %23
  br i1 %24, label %25, label %47

25:                                               ; preds = %19
  %26 = load ptr, ptr @Heap, align 8, !tbaa !77
  %27 = load i32, ptr %5, align 4, !tbaa !3
  %28 = sext i32 %27 to i64
  %29 = getelementptr inbounds ptr, ptr %26, i64 %28
  %30 = load ptr, ptr %29, align 8, !tbaa !29
  %31 = getelementptr inbounds nuw %struct.Agobj_s, ptr %30, i32 0, i32 1
  %32 = load ptr, ptr %31, align 8, !tbaa !47
  %33 = getelementptr inbounds nuw %struct.Agnodeinfo_t, ptr %32, i32 0, i32 23
  %34 = load double, ptr %33, align 8, !tbaa !119
  %35 = load ptr, ptr @Heap, align 8, !tbaa !77
  %36 = load i32, ptr %4, align 4, !tbaa !3
  %37 = sext i32 %36 to i64
  %38 = getelementptr inbounds ptr, ptr %35, i64 %37
  %39 = load ptr, ptr %38, align 8, !tbaa !29
  %40 = getelementptr inbounds nuw %struct.Agobj_s, ptr %39, i32 0, i32 1
  %41 = load ptr, ptr %40, align 8, !tbaa !47
  %42 = getelementptr inbounds nuw %struct.Agnodeinfo_t, ptr %41, i32 0, i32 23
  %43 = load double, ptr %42, align 8, !tbaa !119
  %44 = fcmp olt double %34, %43
  br i1 %44, label %45, label %47

45:                                               ; preds = %25
  %46 = load i32, ptr %5, align 4, !tbaa !3
  store i32 %46, ptr %6, align 4, !tbaa !3
  br label %49

47:                                               ; preds = %25, %19
  %48 = load i32, ptr %4, align 4, !tbaa !3
  store i32 %48, ptr %6, align 4, !tbaa !3
  br label %49

49:                                               ; preds = %47, %45
  %50 = load ptr, ptr @Heap, align 8, !tbaa !77
  %51 = load i32, ptr %6, align 4, !tbaa !3
  %52 = sext i32 %51 to i64
  %53 = getelementptr inbounds ptr, ptr %50, i64 %52
  %54 = load ptr, ptr %53, align 8, !tbaa !29
  store ptr %54, ptr %7, align 8, !tbaa !29
  %55 = load ptr, ptr %2, align 8, !tbaa !29
  %56 = getelementptr inbounds nuw %struct.Agobj_s, ptr %55, i32 0, i32 1
  %57 = load ptr, ptr %56, align 8, !tbaa !47
  %58 = getelementptr inbounds nuw %struct.Agnodeinfo_t, ptr %57, i32 0, i32 23
  %59 = load double, ptr %58, align 8, !tbaa !119
  %60 = load ptr, ptr %7, align 8, !tbaa !29
  %61 = getelementptr inbounds nuw %struct.Agobj_s, ptr %60, i32 0, i32 1
  %62 = load ptr, ptr %61, align 8, !tbaa !47
  %63 = getelementptr inbounds nuw %struct.Agnodeinfo_t, ptr %62, i32 0, i32 23
  %64 = load double, ptr %63, align 8, !tbaa !119
  %65 = fcmp ole double %59, %64
  br i1 %65, label %66, label %67

66:                                               ; preds = %49
  br label %89

67:                                               ; preds = %49
  %68 = load ptr, ptr %2, align 8, !tbaa !29
  %69 = load ptr, ptr @Heap, align 8, !tbaa !77
  %70 = load i32, ptr %6, align 4, !tbaa !3
  %71 = sext i32 %70 to i64
  %72 = getelementptr inbounds ptr, ptr %69, i64 %71
  store ptr %68, ptr %72, align 8, !tbaa !29
  %73 = load i32, ptr %6, align 4, !tbaa !3
  %74 = load ptr, ptr %2, align 8, !tbaa !29
  %75 = getelementptr inbounds nuw %struct.Agobj_s, ptr %74, i32 0, i32 1
  %76 = load ptr, ptr %75, align 8, !tbaa !47
  %77 = getelementptr inbounds nuw %struct.Agnodeinfo_t, ptr %76, i32 0, i32 20
  store i32 %73, ptr %77, align 8, !tbaa !68
  %78 = load ptr, ptr %7, align 8, !tbaa !29
  %79 = load ptr, ptr @Heap, align 8, !tbaa !77
  %80 = load i32, ptr %3, align 4, !tbaa !3
  %81 = sext i32 %80 to i64
  %82 = getelementptr inbounds ptr, ptr %79, i64 %81
  store ptr %78, ptr %82, align 8, !tbaa !29
  %83 = load i32, ptr %3, align 4, !tbaa !3
  %84 = load ptr, ptr %7, align 8, !tbaa !29
  %85 = getelementptr inbounds nuw %struct.Agobj_s, ptr %84, i32 0, i32 1
  %86 = load ptr, ptr %85, align 8, !tbaa !47
  %87 = getelementptr inbounds nuw %struct.Agnodeinfo_t, ptr %86, i32 0, i32 20
  store i32 %83, ptr %87, align 8, !tbaa !68
  %88 = load i32, ptr %6, align 4, !tbaa !3
  store i32 %88, ptr %3, align 4, !tbaa !3
  br label %13, !llvm.loop !121

89:                                               ; preds = %66, %13
  call void @llvm.lifetime.end.p0(i64 8, ptr %7) #11
  call void @llvm.lifetime.end.p0(i64 4, ptr %6) #11
  call void @llvm.lifetime.end.p0(i64 4, ptr %5) #11
  call void @llvm.lifetime.end.p0(i64 4, ptr %4) #11
  call void @llvm.lifetime.end.p0(i64 4, ptr %3) #11
  ret void
}

; Function Attrs: nounwind uwtable
define ptr @neato_dequeue() #0 {
  %1 = alloca ptr, align 8
  %2 = alloca i32, align 4
  %3 = alloca ptr, align 8
  %4 = alloca ptr, align 8
  %5 = alloca i32, align 4
  call void @llvm.lifetime.start.p0(i64 4, ptr %2) #11
  call void @llvm.lifetime.start.p0(i64 8, ptr %3) #11
  call void @llvm.lifetime.start.p0(i64 8, ptr %4) #11
  %6 = load i32, ptr @Heapsize, align 4, !tbaa !3
  %7 = icmp eq i32 %6, 0
  br i1 %7, label %8, label %9

8:                                                ; preds = %0
  store ptr null, ptr %1, align 8
  store i32 1, ptr %5, align 4
  br label %37

9:                                                ; preds = %0
  %10 = load ptr, ptr @Heap, align 8, !tbaa !77
  %11 = getelementptr inbounds ptr, ptr %10, i64 0
  %12 = load ptr, ptr %11, align 8, !tbaa !29
  store ptr %12, ptr %3, align 8, !tbaa !29
  %13 = load i32, ptr @Heapsize, align 4, !tbaa !3
  %14 = add nsw i32 %13, -1
  store i32 %14, ptr @Heapsize, align 4, !tbaa !3
  store i32 %14, ptr %2, align 4, !tbaa !3
  %15 = load ptr, ptr @Heap, align 8, !tbaa !77
  %16 = load i32, ptr %2, align 4, !tbaa !3
  %17 = sext i32 %16 to i64
  %18 = getelementptr inbounds ptr, ptr %15, i64 %17
  %19 = load ptr, ptr %18, align 8, !tbaa !29
  store ptr %19, ptr %4, align 8, !tbaa !29
  %20 = load ptr, ptr %4, align 8, !tbaa !29
  %21 = load ptr, ptr @Heap, align 8, !tbaa !77
  %22 = getelementptr inbounds ptr, ptr %21, i64 0
  store ptr %20, ptr %22, align 8, !tbaa !29
  %23 = load ptr, ptr %4, align 8, !tbaa !29
  %24 = getelementptr inbounds nuw %struct.Agobj_s, ptr %23, i32 0, i32 1
  %25 = load ptr, ptr %24, align 8, !tbaa !47
  %26 = getelementptr inbounds nuw %struct.Agnodeinfo_t, ptr %25, i32 0, i32 20
  store i32 0, ptr %26, align 8, !tbaa !68
  %27 = load i32, ptr %2, align 4, !tbaa !3
  %28 = icmp sgt i32 %27, 1
  br i1 %28, label %29, label %31

29:                                               ; preds = %9
  %30 = load ptr, ptr %4, align 8, !tbaa !29
  call void @heapdown(ptr noundef %30)
  br label %31

31:                                               ; preds = %29, %9
  %32 = load ptr, ptr %3, align 8, !tbaa !29
  %33 = getelementptr inbounds nuw %struct.Agobj_s, ptr %32, i32 0, i32 1
  %34 = load ptr, ptr %33, align 8, !tbaa !47
  %35 = getelementptr inbounds nuw %struct.Agnodeinfo_t, ptr %34, i32 0, i32 20
  store i32 -1, ptr %35, align 8, !tbaa !68
  %36 = load ptr, ptr %3, align 8, !tbaa !29
  store ptr %36, ptr %1, align 8
  store i32 1, ptr %5, align 4
  br label %37

37:                                               ; preds = %31, %8
  call void @llvm.lifetime.end.p0(i64 8, ptr %4) #11
  call void @llvm.lifetime.end.p0(i64 8, ptr %3) #11
  call void @llvm.lifetime.end.p0(i64 4, ptr %2) #11
  %38 = load ptr, ptr %1, align 8
  ret ptr %38
}