; Function Attrs: nofree norecurse nosync nounwind memory(readwrite, inaccessiblemem: none) uwtable
define ptr @neato_dequeue() local_unnamed_addr #10 {
  %1 = load i32, ptr @Heapsize, align 4, !tbaa !68
  %2 = icmp eq i32 %1, 0
  br i1 %2, label %54, label %3

3:                                                ; preds = %0
  %4 = load ptr, ptr @Heap, align 8, !tbaa !116
  %5 = load ptr, ptr %4, align 8, !tbaa !57
  %6 = add nsw i32 %1, -1
  store i32 %6, ptr @Heapsize, align 4, !tbaa !68
  %7 = sext i32 %6 to i64
  %8 = getelementptr inbounds ptr, ptr %4, i64 %7
  %9 = load ptr, ptr %8, align 8, !tbaa !57
  store ptr %9, ptr %4, align 8, !tbaa !57
  %10 = getelementptr inbounds nuw i8, ptr %9, i64 16
  %11 = load ptr, ptr %10, align 8, !tbaa !40
  %12 = getelementptr inbounds nuw i8, ptr %11, i64 168
  store i32 0, ptr %12, align 8, !tbaa !64
  %13 = icmp sgt i32 %1, 2
  br i1 %13, label %.lr.ph.i, label %heapdown.exit

.lr.ph.i:                                         ; preds = %3
  %14 = getelementptr inbounds nuw i8, ptr %11, i64 184
  %15 = load double, ptr %14, align 8, !tbaa !117
  br label %16

16:                                               ; preds = %43, %.lr.ph.i
  %17 = phi i32 [ 1, %.lr.ph.i ], [ %49, %43 ]
  %18 = phi i32 [ 0, %.lr.ph.i ], [ %48, %43 ]
  %.023.i = phi i32 [ 0, %.lr.ph.i ], [ %.019.i, %43 ]
  %19 = add nsw i32 %18, 2
  %20 = icmp slt i32 %19, %6
  br i1 %20, label %21, label %._crit_edge30.i

._crit_edge30.i:                                  ; preds = %16
  %.pre.phi.trans.insert.i = sext i32 %17 to i64
  %.phi.trans.insert.phi.trans.insert.i = getelementptr inbounds ptr, ptr %4, i64 %.pre.phi.trans.insert.i
  %.pre25.pre.i = load ptr, ptr %.phi.trans.insert.phi.trans.insert.i, align 8, !tbaa !57
  %.phi.trans.insert26.phi.trans.insert.i = getelementptr inbounds nuw i8, ptr %.pre25.pre.i, i64 16
  %.pre27.pre.i = load ptr, ptr %.phi.trans.insert26.phi.trans.insert.i, align 8, !tbaa !40
  %.phi.trans.insert28.phi.trans.insert.i = getelementptr inbounds nuw i8, ptr %.pre27.pre.i, i64 184
  %.pre29.pre.i = load double, ptr %.phi.trans.insert28.phi.trans.insert.i, align 8, !tbaa !117
  br label %38

21:                                               ; preds = %16
  %22 = sext i32 %19 to i64
  %23 = getelementptr inbounds ptr, ptr %4, i64 %22
  %24 = load ptr, ptr %23, align 8, !tbaa !57
  %25 = getelementptr inbounds nuw i8, ptr %24, i64 16
  %26 = load ptr, ptr %25, align 8, !tbaa !40
  %27 = getelementptr inbounds nuw i8, ptr %26, i64 184
  %28 = load double, ptr %27, align 8, !tbaa !117
  %29 = sext i32 %17 to i64
  %30 = getelementptr inbounds ptr, ptr %4, i64 %29
  %31 = load ptr, ptr %30, align 8, !tbaa !57
  %32 = getelementptr inbounds nuw i8, ptr %31, i64 16
  %33 = load ptr, ptr %32, align 8, !tbaa !40
  %34 = getelementptr inbounds nuw i8, ptr %33, i64 184
  %35 = load double, ptr %34, align 8, !tbaa !117
  %36 = fcmp olt double %28, %35
  br i1 %36, label %38, label %37

37:                                               ; preds = %21
  br label %38

38:                                               ; preds = %37, %21, %._crit_edge30.i
  %39 = phi double [ %28, %21 ], [ %.pre29.pre.i, %._crit_edge30.i ], [ %35, %37 ]
  %40 = phi ptr [ %26, %21 ], [ %.pre27.pre.i, %._crit_edge30.i ], [ %33, %37 ]
  %41 = phi ptr [ %24, %21 ], [ %.pre25.pre.i, %._crit_edge30.i ], [ %31, %37 ]
  %.pre-phi.i = phi i64 [ %22, %21 ], [ %.pre.phi.trans.insert.i, %._crit_edge30.i ], [ %29, %37 ]
  %.019.i = phi i32 [ %19, %21 ], [ %17, %._crit_edge30.i ], [ %17, %37 ]
  %42 = fcmp ugt double %15, %39
  br i1 %42, label %43, label %heapdown.exit

43:                                               ; preds = %38
  %44 = getelementptr inbounds ptr, ptr %4, i64 %.pre-phi.i
  store ptr %9, ptr %44, align 8, !tbaa !57
  store i32 %.019.i, ptr %12, align 8, !tbaa !64
  %45 = sext i32 %.023.i to i64
  %46 = getelementptr inbounds ptr, ptr %4, i64 %45
  store ptr %41, ptr %46, align 8, !tbaa !57
  %47 = getelementptr inbounds nuw i8, ptr %40, i64 168
  store i32 %.023.i, ptr %47, align 8, !tbaa !64
  %48 = shl nsw i32 %.019.i, 1
  %49 = or disjoint i32 %48, 1
  %50 = icmp slt i32 %49, %6
  br i1 %50, label %16, label %heapdown.exit, !llvm.loop !119

heapdown.exit:                                    ; preds = %43, %38, %3
  %51 = getelementptr inbounds nuw i8, ptr %5, i64 16
  %52 = load ptr, ptr %51, align 8, !tbaa !40
  %53 = getelementptr inbounds nuw i8, ptr %52, i64 168
  store i32 -1, ptr %53, align 8, !tbaa !64
  br label %54

54:                                               ; preds = %0, %heapdown.exit
  %.0 = phi ptr [ %5, %heapdown.exit ], [ null, %0 ]
  ret ptr %.0
}